; Function Attrs: mustprogress nofree norecurse nosync nounwind willreturn memory(argmem: read) uwtable
define noundef i64 @_ZN7rocksdb3log6Reader13LastRecordEndEv(ptr nocapture noundef nonnull readonly align 8 dereferenceable(240) %this) local_unnamed_addr #13 align 2 {
entry:
  %end_of_buffer_offset_ = getelementptr inbounds i8, ptr %this, i64 96
  %0 = load i64, ptr %end_of_buffer_offset_, align 8
  %size_.i = getelementptr inbounds i8, ptr %this, i64 64
  %1 = load i64, ptr %size_.i, align 8
  %sub = sub i64 %0, %1
  ret i64 %sub
}